target datalayout = "e-m:e-p270:32:32-p271:32:32-p272:64:64-i64:64-i128:128-f80:128-n8:16:32:64-S128"
target triple = "x86_64-pc-linux-gnu"

%struct.evp_pkey_st = type { i32, i32, ptr, ptr, ptr, %union.legacy_pkey_st, %union.legacy_pkey_st, %struct.CRYPTO_REF_COUNT, ptr, ptr, i32, i8, %struct.crypto_ex_data_st, ptr, ptr, i64, ptr, i64, %struct.anon }
%union.legacy_pkey_st = type { ptr }
%struct.CRYPTO_REF_COUNT = type { i32 }
%struct.crypto_ex_data_st = type { ptr, ptr }
%struct.anon = type { i32, i32, i32 }
%struct.evp_pkey_asn1_method_st = type { i32, i32, i64, ptr, ptr, ptr, ptr, ptr, ptr, ptr, ptr, ptr, ptr, ptr, ptr, ptr, ptr, ptr, ptr, ptr, ptr, ptr, ptr, ptr, ptr, ptr, ptr, ptr, ptr, ptr, ptr, ptr, ptr, ptr, ptr, ptr, ptr, ptr, ptr, ptr, ptr }

@.str.1 = private unnamed_addr constant [4 x i8] c"PEM\00", align 1
@.str.4 = private unnamed_addr constant [14 x i8] c"type-specific\00", align 1
@.str.5 = private unnamed_addr constant [14 x i8] c"%s PARAMETERS\00", align 1

; Function Attrs: nounwind uwtable
define i32 @PEM_write_bio_Parameters(ptr noundef %0, ptr noundef %1) #0 {
  %3 = alloca i32, align 4
  %4 = alloca ptr, align 8
  %5 = alloca ptr, align 8
  %6 = alloca [80 x i8], align 16
  %7 = alloca i32, align 4
  %8 = alloca ptr, align 8
  %9 = alloca i32, align 4
  store ptr %0, ptr %4, align 8, !tbaa !3
  store ptr %1, ptr %5, align 8, !tbaa !17
  call void @llvm.lifetime.start.p0(i64 80, ptr %6) #6
  call void @llvm.lifetime.start.p0(i64 4, ptr %7) #6
  store i32 0, ptr %7, align 4, !tbaa !15
  call void @llvm.lifetime.start.p0(i64 8, ptr %8) #6
  %10 = load ptr, ptr %5, align 8, !tbaa !17
  %11 = call ptr @OSSL_ENCODER_CTX_new_for_pkey(ptr noundef %10, i32 noundef 132, ptr noundef @.str.1, ptr noundef @.str.4, ptr noundef null)
  store ptr %11, ptr %8, align 8, !tbaa !23
  %12 = load ptr, ptr %8, align 8, !tbaa !23
  %13 = call i32 @OSSL_ENCODER_CTX_get_num_encoders(ptr noundef %12)
  %14 = icmp eq i32 %13, 0
  br i1 %14, label %15, label %17

15:                                               ; preds = %2
  %16 = load ptr, ptr %8, align 8, !tbaa !23
  call void @OSSL_ENCODER_CTX_free(ptr noundef %16)
  br label %23

17:                                               ; preds = %2
  %18 = load ptr, ptr %8, align 8, !tbaa !23
  %19 = load ptr, ptr %4, align 8, !tbaa !3
  %20 = call i32 @OSSL_ENCODER_to_bio(ptr noundef %18, ptr noundef %19)
  store i32 %20, ptr %7, align 4, !tbaa !15
  %21 = load ptr, ptr %8, align 8, !tbaa !23
  call void @OSSL_ENCODER_CTX_free(ptr noundef %21)
  %22 = load i32, ptr %7, align 4, !tbaa !15
  store i32 %22, ptr %3, align 4
  store i32 1, ptr %9, align 4
  br label %53

23:                                               ; preds = %15
  %24 = load ptr, ptr %5, align 8, !tbaa !17
  %25 = getelementptr inbounds nuw %struct.evp_pkey_st, ptr %24, i32 0, i32 2
  %26 = load ptr, ptr %25, align 8, !tbaa !25
  %27 = icmp ne ptr %26, null
  br i1 %27, label %28, label %35

28:                                               ; preds = %23
  %29 = load ptr, ptr %5, align 8, !tbaa !17
  %30 = getelementptr inbounds nuw %struct.evp_pkey_st, ptr %29, i32 0, i32 2
  %31 = load ptr, ptr %30, align 8, !tbaa !25
  %32 = getelementptr inbounds nuw %struct.evp_pkey_asn1_method_st, ptr %31, i32 0, i32 16
  %33 = load ptr, ptr %32, align 8, !tbaa !44
  %34 = icmp ne ptr %33, null
  br i1 %34, label %36, label %35

35:                                               ; preds = %28, %23
  store i32 0, ptr %3, align 4
  store i32 1, ptr %9, align 4
  br label %53

36:                                               ; preds = %28
  %37 = getelementptr inbounds [80 x i8], ptr %6, i64 0, i64 0
  %38 = load ptr, ptr %5, align 8, !tbaa !17
  %39 = getelementptr inbounds nuw %struct.evp_pkey_st, ptr %38, i32 0, i32 2
  %40 = load ptr, ptr %39, align 8, !tbaa !25
  %41 = getelementptr inbounds nuw %struct.evp_pkey_asn1_method_st, ptr %40, i32 0, i32 3
  %42 = load ptr, ptr %41, align 8, !tbaa !43
  %43 = call i32 (ptr, i64, ptr, ...) @BIO_snprintf(ptr noundef %37, i64 noundef 80, ptr noundef @.str.5, ptr noundef %42)
  %44 = load ptr, ptr %5, align 8, !tbaa !17
  %45 = getelementptr inbounds nuw %struct.evp_pkey_st, ptr %44, i32 0, i32 2
  %46 = load ptr, ptr %45, align 8, !tbaa !25
  %47 = getelementptr inbounds nuw %struct.evp_pkey_asn1_method_st, ptr %46, i32 0, i32 16
  %48 = load ptr, ptr %47, align 8, !tbaa !44
  %49 = getelementptr inbounds [80 x i8], ptr %6, i64 0, i64 0
  %50 = load ptr, ptr %4, align 8, !tbaa !3
  %51 = load ptr, ptr %5, align 8, !tbaa !17
  %52 = call i32 @PEM_ASN1_write_bio(ptr noundef %48, ptr noundef %49, ptr noundef %50, ptr noundef %51, ptr noundef null, ptr noundef null, i32 noundef 0, ptr noundef null, ptr noundef null)
  store i32 %52, ptr %3, align 4
  store i32 1, ptr %9, align 4
  br label %53

53:                                               ; preds = %36, %35, %17
  call void @llvm.lifetime.end.p0(i64 8, ptr %8) #6
  call void @llvm.lifetime.end.p0(i64 4, ptr %7) #6
  call void @llvm.lifetime.end.p0(i64 80, ptr %6) #6
  %54 = load i32, ptr %3, align 4
  ret i32 %54
}