; Function Attrs: nounwind uwtable
define i32 @PEM_write_bio_Parameters(ptr noundef %0, ptr noundef %1) local_unnamed_addr #0 {
  %3 = alloca [80 x i8], align 16
  call void @llvm.lifetime.start.p0(i64 80, ptr nonnull %3) #6
  %4 = tail call ptr @OSSL_ENCODER_CTX_new_for_pkey(ptr noundef %1, i32 noundef 132, ptr noundef nonnull @.str.1, ptr noundef nonnull @.str.4, ptr noundef null) #6
  %5 = tail call i32 @OSSL_ENCODER_CTX_get_num_encoders(ptr noundef %4) #6
  %6 = icmp eq i32 %5, 0
  br i1 %6, label %7, label %10

7:                                                ; preds = %2
  tail call void @OSSL_ENCODER_CTX_free(ptr noundef %4) #6
  %8 = getelementptr inbounds nuw i8, ptr %1, i64 8
  %9 = load ptr, ptr %8, align 8, !tbaa !18
  %.not = icmp eq ptr %9, null
  br i1 %.not, label %23, label %12

10:                                               ; preds = %2
  %11 = tail call i32 @OSSL_ENCODER_to_bio(ptr noundef %4, ptr noundef %0) #6
  tail call void @OSSL_ENCODER_CTX_free(ptr noundef %4) #6
  br label %23

12:                                               ; preds = %7
  %13 = getelementptr inbounds nuw i8, ptr %9, i64 120
  %14 = load ptr, ptr %13, align 8, !tbaa !36
  %.not14 = icmp eq ptr %14, null
  br i1 %.not14, label %23, label %15

15:                                               ; preds = %12
  %16 = getelementptr inbounds nuw i8, ptr %9, i64 16
  %17 = load ptr, ptr %16, align 8, !tbaa !35
  %18 = call i32 (ptr, i64, ptr, ...) @BIO_snprintf(ptr noundef nonnull %3, i64 noundef 80, ptr noundef nonnull @.str.5, ptr noundef %17) #6
  %19 = load ptr, ptr %8, align 8, !tbaa !18
  %20 = getelementptr inbounds nuw i8, ptr %19, i64 120
  %21 = load ptr, ptr %20, align 8, !tbaa !36
  %22 = call i32 @PEM_ASN1_write_bio(ptr noundef %21, ptr noundef nonnull %3, ptr noundef %0, ptr noundef nonnull %1, ptr noundef null, ptr noundef null, i32 noundef 0, ptr noundef null, ptr noundef null) #6
  br label %23

23:                                               ; preds = %7, %12, %15, %10
  %.0 = phi i32 [ %22, %15 ], [ %11, %10 ], [ 0, %12 ], [ 0, %7 ]
  call void @llvm.lifetime.end.p0(i64 80, ptr nonnull %3) #6
  ret i32 %.0
}